target datalayout = "e-m:e-p270:32:32-p271:32:32-p272:64:64-i64:64-i128:128-f80:128-n8:16:32:64-S128"
target triple = "x86_64-pc-linux-gnu"

%"struct.open_spiel::GameType" = type <{ %"class.std::__cxx11::basic_string", %"class.std::__cxx11::basic_string", i32, i32, i32, i32, i32, i32, i32, i8, i8, i8, i8, %"class.std::map", i8, i8, [6 x i8] }>
%"class.std::__cxx11::basic_string" = type { %"struct.std::__cxx11::basic_string<char>::_Alloc_hider", i64, %union.anon }
%"struct.std::__cxx11::basic_string<char>::_Alloc_hider" = type { ptr }
%union.anon = type { i64, [8 x i8] }
%"class.std::map" = type { %"class.std::_Rb_tree" }
%"class.std::_Rb_tree" = type { %"struct.std::_Rb_tree<std::__cxx11::basic_string<char>, std::pair<const std::__cxx11::basic_string<char>, open_spiel::GameParameter>, std::_Select1st<std::pair<const std::__cxx11::basic_string<char>, open_spiel::GameParameter>>, std::less<std::__cxx11::basic_string<char>>>::_Rb_tree_impl" }
%"struct.std::_Rb_tree<std::__cxx11::basic_string<char>, std::pair<const std::__cxx11::basic_string<char>, open_spiel::GameParameter>, std::_Select1st<std::pair<const std::__cxx11::basic_string<char>, open_spiel::GameParameter>>, std::less<std::__cxx11::basic_string<char>>>::_Rb_tree_impl" = type { [8 x i8], %"struct.std::_Rb_tree_header" }
%"struct.std::_Rb_tree_header" = type { %"struct.std::_Rb_tree_node_base", i64 }
%"struct.std::_Rb_tree_node_base" = type { i32, ptr, ptr, ptr }
%"class.open_spiel::battleship::BattleshipGame" = type { %"class.open_spiel::Game", %"struct.open_spiel::battleship::BattleshipConfiguration" }
%"class.open_spiel::Game" = type { ptr, %"class.std::enable_shared_from_this", %"struct.open_spiel::GameType", %"class.std::map", %"class.std::map", %"class.absl::debian2::Mutex" }
%"class.std::enable_shared_from_this" = type { %"class.std::weak_ptr" }
%"class.std::weak_ptr" = type { %"class.std::__weak_ptr" }
%"class.std::__weak_ptr" = type { ptr, %"class.std::__weak_count" }
%"class.std::__weak_count" = type { ptr }
%"class.absl::debian2::Mutex" = type { %"struct.std::atomic" }
%"struct.std::atomic" = type { %"struct.std::__atomic_base" }
%"struct.std::__atomic_base" = type { i64 }
%"struct.open_spiel::battleship::BattleshipConfiguration" = type { i32, i32, %"class.std::vector.14", i32, i8, double }
%"class.std::vector.14" = type { %"struct.std::_Vector_base.15" }
%"struct.std::_Vector_base.15" = type { %"struct.std::_Vector_base<open_spiel::battleship::Ship, std::allocator<open_spiel::battleship::Ship>>::_Vector_impl" }
%"struct.std::_Vector_base<open_spiel::battleship::Ship, std::allocator<open_spiel::battleship::Ship>>::_Vector_impl" = type { %"struct.std::_Vector_base<open_spiel::battleship::Ship, std::allocator<open_spiel::battleship::Ship>>::_Vector_impl_data" }
%"struct.std::_Vector_base<open_spiel::battleship::Ship, std::allocator<open_spiel::battleship::Ship>>::_Vector_impl_data" = type { ptr, ptr, ptr }
%"class.open_spiel::battleship::CellAndDirection" = type { i32, %"struct.open_spiel::battleship::Cell" }
%"struct.open_spiel::battleship::Cell" = type { i32, i32 }

@.str = private unnamed_addr constant [140 x i8] c"generated/home/dtcxzyw/WorkSpace/Projects/compilers/llvm-opt-benchmark/bench/openspiel/open_spiel/open_spiel/games/battleship/battleship.cc\00", align 1
@.str.1 = private unnamed_addr constant [2 x i8] c":\00", align 1
@.str.2 = private unnamed_addr constant [2 x i8] c" \00", align 1
@.str.5 = private unnamed_addr constant [4 x i8] c" = \00", align 1
@.str.6 = private unnamed_addr constant [7 x i8] c", 0 = \00", align 1
@.str.49 = private unnamed_addr constant [23 x i8] c", conf.board_height = \00", align 1
@.str.53 = private unnamed_addr constant [22 x i8] c", conf.board_width = \00", align 1
@.str.113 = private unnamed_addr constant [38 x i8] c"cell_and_dir.TopLeftCorner().row >= 0\00", align 1
@.str.114 = private unnamed_addr constant [34 x i8] c"\0Acell_and_dir.TopLeftCorner().row\00", align 1
@.str.115 = private unnamed_addr constant [38 x i8] c"cell_and_dir.TopLeftCorner().col >= 0\00", align 1
@.str.116 = private unnamed_addr constant [34 x i8] c"\0Acell_and_dir.TopLeftCorner().col\00", align 1
@.str.117 = private unnamed_addr constant [53 x i8] c"cell_and_dir.TopLeftCorner().row < conf.board_height\00", align 1
@.str.118 = private unnamed_addr constant [52 x i8] c"cell_and_dir.TopLeftCorner().col < conf.board_width\00", align 1

; Function Attrs: mustprogress nounwind uwtable
define linkonce_odr i64 @_ZNK10open_spiel10battleship16CellAndDirection13TopLeftCornerEv(ptr noundef nonnull align 4 dereferenceable(12) %0) #5 comdat align 2 {
  %2 = alloca %"struct.open_spiel::battleship::Cell", align 4
  %3 = alloca ptr, align 8
  store ptr %0, ptr %3, align 8
  %4 = load ptr, ptr %3, align 8
  %5 = getelementptr inbounds nuw %"class.open_spiel::battleship::CellAndDirection", ptr %4, i32 0, i32 1
  call void @llvm.memcpy.p0.p0.i64(ptr align 4 %2, ptr align 4 %5, i64 8, i1 false)
  %6 = load i64, ptr %2, align 4
  ret i64 %6
}

; Function Attrs: mustprogress uwtable
define noundef i64 @_ZNK10open_spiel10battleship14BattleshipGame28SerializeShipPlacementActionERKNS0_16CellAndDirectionE(ptr noundef nonnull align 8 dereferenceable(328) %0, ptr noundef nonnull align 4 dereferenceable(12) %1) #4 align 2 personality ptr @__gxx_personality_v0 {
  %3 = alloca ptr, align 8
  %4 = alloca ptr, align 8
  %5 = alloca i32, align 4
  %6 = alloca %"struct.open_spiel::battleship::Cell", align 4
  %7 = alloca i32, align 4
  %8 = alloca %"class.std::__cxx11::basic_string", align 8
  %9 = alloca i32, align 4
  %10 = alloca ptr, align 8
  %11 = alloca i32, align 4
  %12 = alloca i32, align 4
  %13 = alloca %"struct.open_spiel::battleship::Cell", align 4
  %14 = alloca i32, align 4
  %15 = alloca %"class.std::__cxx11::basic_string", align 8
  %16 = alloca i32, align 4
  %17 = alloca i32, align 4
  %18 = alloca %"struct.open_spiel::battleship::Cell", align 4
  %19 = alloca i32, align 4
  %20 = alloca %"class.std::__cxx11::basic_string", align 8
  %21 = alloca i32, align 4
  %22 = alloca i32, align 4
  %23 = alloca %"struct.open_spiel::battleship::Cell", align 4
  %24 = alloca i32, align 4
  %25 = alloca %"class.std::__cxx11::basic_string", align 8
  %26 = alloca i32, align 4
  %27 = alloca i64, align 8
  %28 = alloca %"struct.open_spiel::battleship::Cell", align 4
  store ptr %0, ptr %3, align 8
  store ptr %1, ptr %4, align 8
  %29 = load ptr, ptr %3, align 8
  br label %30

30:                                               ; preds = %2
  %31 = load ptr, ptr %4, align 8
  %32 = call i64 @_ZNK10open_spiel10battleship16CellAndDirection13TopLeftCornerEv(ptr noundef nonnull align 4 dereferenceable(12) %31)
  store i64 %32, ptr %6, align 4
  %33 = getelementptr inbounds nuw %"struct.open_spiel::battleship::Cell", ptr %6, i32 0, i32 0
  %34 = load i32, ptr %33, align 4
  store i32 %34, ptr %5, align 4
  store i32 0, ptr %7, align 4
  %35 = load i32, ptr %5, align 4
  %36 = load i32, ptr %7, align 4
  %37 = icmp sge i32 %35, %36
  br i1 %37, label %44, label %38

38:                                               ; preds = %30
  store i32 1030, ptr %9, align 4
  call void @_ZN10open_spiel8internal11SpielStrCatIJRA140_KcRA2_S2_iS6_RA38_S2_RA34_S2_RA4_S2_RiRA7_S2_SD_EEENSt7__cxx1112basic_stringIcSt11char_traitsIcESaIcEEEDpOT_(ptr dead_on_unwind writable sret(%"class.std::__cxx11::basic_string") align 8 %8, ptr noundef nonnull align 1 dereferenceable(140) @.str, ptr noundef nonnull align 1 dereferenceable(2) @.str.1, ptr noundef nonnull align 4 dereferenceable(4) %9, ptr noundef nonnull align 1 dereferenceable(2) @.str.2, ptr noundef nonnull align 1 dereferenceable(38) @.str.113, ptr noundef nonnull align 1 dereferenceable(34) @.str.114, ptr noundef nonnull align 1 dereferenceable(4) @.str.5, ptr noundef nonnull align 4 dereferenceable(4) %5, ptr noundef nonnull align 1 dereferenceable(7) @.str.6, ptr noundef nonnull align 4 dereferenceable(4) %7)
  invoke void @_ZN10open_spiel15SpielFatalErrorERKNSt7__cxx1112basic_stringIcSt11char_traitsIcESaIcEEE(ptr noundef nonnull align 8 dereferenceable(32) %8) #19
          to label %39 unwind label %40

39:                                               ; preds = %38
  unreachable

40:                                               ; preds = %38
  %41 = landingpad { ptr, i32 }
          cleanup
  %42 = extractvalue { ptr, i32 } %41, 0
  store ptr %42, ptr %10, align 8
  %43 = extractvalue { ptr, i32 } %41, 1
  store i32 %43, ptr %11, align 4
  call void @_ZNSt7__cxx1112basic_stringIcSt11char_traitsIcESaIcEED1Ev(ptr noundef nonnull align 8 dereferenceable(32) %8) #3
  br label %129

44:                                               ; preds = %30
  br label %45

45:                                               ; preds = %44
  br label %46

46:                                               ; preds = %45
  %47 = load ptr, ptr %4, align 8
  %48 = call i64 @_ZNK10open_spiel10battleship16CellAndDirection13TopLeftCornerEv(ptr noundef nonnull align 4 dereferenceable(12) %47)
  store i64 %48, ptr %13, align 4
  %49 = getelementptr inbounds nuw %"struct.open_spiel::battleship::Cell", ptr %13, i32 0, i32 1
  %50 = load i32, ptr %49, align 4
  store i32 %50, ptr %12, align 4
  store i32 0, ptr %14, align 4
  %51 = load i32, ptr %12, align 4
  %52 = load i32, ptr %14, align 4
  %53 = icmp sge i32 %51, %52
  br i1 %53, label %60, label %54

54:                                               ; preds = %46
  store i32 1031, ptr %16, align 4
  call void @_ZN10open_spiel8internal11SpielStrCatIJRA140_KcRA2_S2_iS6_RA38_S2_RA34_S2_RA4_S2_RiRA7_S2_SD_EEENSt7__cxx1112basic_stringIcSt11char_traitsIcESaIcEEEDpOT_(ptr dead_on_unwind writable sret(%"class.std::__cxx11::basic_string") align 8 %15, ptr noundef nonnull align 1 dereferenceable(140) @.str, ptr noundef nonnull align 1 dereferenceable(2) @.str.1, ptr noundef nonnull align 4 dereferenceable(4) %16, ptr noundef nonnull align 1 dereferenceable(2) @.str.2, ptr noundef nonnull align 1 dereferenceable(38) @.str.115, ptr noundef nonnull align 1 dereferenceable(34) @.str.116, ptr noundef nonnull align 1 dereferenceable(4) @.str.5, ptr noundef nonnull align 4 dereferenceable(4) %12, ptr noundef nonnull align 1 dereferenceable(7) @.str.6, ptr noundef nonnull align 4 dereferenceable(4) %14)
  invoke void @_ZN10open_spiel15SpielFatalErrorERKNSt7__cxx1112basic_stringIcSt11char_traitsIcESaIcEEE(ptr noundef nonnull align 8 dereferenceable(32) %15) #19
          to label %55 unwind label %56

55:                                               ; preds = %54
  unreachable

56:                                               ; preds = %54
  %57 = landingpad { ptr, i32 }
          cleanup
  %58 = extractvalue { ptr, i32 } %57, 0
  store ptr %58, ptr %10, align 8
  %59 = extractvalue { ptr, i32 } %57, 1
  store i32 %59, ptr %11, align 4
  call void @_ZNSt7__cxx1112basic_stringIcSt11char_traitsIcESaIcEED1Ev(ptr noundef nonnull align 8 dereferenceable(32) %15) #3
  br label %129

60:                                               ; preds = %46
  br label %61

61:                                               ; preds = %60
  br label %62

62:                                               ; preds = %61
  %63 = load ptr, ptr %4, align 8
  %64 = call i64 @_ZNK10open_spiel10battleship16CellAndDirection13TopLeftCornerEv(ptr noundef nonnull align 4 dereferenceable(12) %63)
  store i64 %64, ptr %18, align 4
  %65 = getelementptr inbounds nuw %"struct.open_spiel::battleship::Cell", ptr %18, i32 0, i32 0
  %66 = load i32, ptr %65, align 4
  store i32 %66, ptr %17, align 4
  %67 = getelementptr inbounds nuw %"class.open_spiel::battleship::BattleshipGame", ptr %29, i32 0, i32 1
  %68 = getelementptr inbounds nuw %"struct.open_spiel::battleship::BattleshipConfiguration", ptr %67, i32 0, i32 1
  %69 = load i32, ptr %68, align 4
  store i32 %69, ptr %19, align 4
  %70 = load i32, ptr %17, align 4
  %71 = load i32, ptr %19, align 4
  %72 = icmp slt i32 %70, %71
  br i1 %72, label %79, label %73

73:                                               ; preds = %62
  store i32 1032, ptr %21, align 4
  call void @_ZN10open_spiel8internal11SpielStrCatIJRA140_KcRA2_S2_iS6_RA53_S2_RA34_S2_RA4_S2_RiRA23_S2_SD_EEENSt7__cxx1112basic_stringIcSt11char_traitsIcESaIcEEEDpOT_(ptr dead_on_unwind writable sret(%"class.std::__cxx11::basic_string") align 8 %20, ptr noundef nonnull align 1 dereferenceable(140) @.str, ptr noundef nonnull align 1 dereferenceable(2) @.str.1, ptr noundef nonnull align 4 dereferenceable(4) %21, ptr noundef nonnull align 1 dereferenceable(2) @.str.2, ptr noundef nonnull align 1 dereferenceable(53) @.str.117, ptr noundef nonnull align 1 dereferenceable(34) @.str.114, ptr noundef nonnull align 1 dereferenceable(4) @.str.5, ptr noundef nonnull align 4 dereferenceable(4) %17, ptr noundef nonnull align 1 dereferenceable(23) @.str.49, ptr noundef nonnull align 4 dereferenceable(4) %19)
  invoke void @_ZN10open_spiel15SpielFatalErrorERKNSt7__cxx1112basic_stringIcSt11char_traitsIcESaIcEEE(ptr noundef nonnull align 8 dereferenceable(32) %20) #19
          to label %74 unwind label %75

74:                                               ; preds = %73
  unreachable

75:                                               ; preds = %73
  %76 = landingpad { ptr, i32 }
          cleanup
  %77 = extractvalue { ptr, i32 } %76, 0
  store ptr %77, ptr %10, align 8
  %78 = extractvalue { ptr, i32 } %76, 1
  store i32 %78, ptr %11, align 4
  call void @_ZNSt7__cxx1112basic_stringIcSt11char_traitsIcESaIcEED1Ev(ptr noundef nonnull align 8 dereferenceable(32) %20) #3
  br label %129

79:                                               ; preds = %62
  br label %80

80:                                               ; preds = %79
  br label %81

81:                                               ; preds = %80
  %82 = load ptr, ptr %4, align 8
  %83 = call i64 @_ZNK10open_spiel10battleship16CellAndDirection13TopLeftCornerEv(ptr noundef nonnull align 4 dereferenceable(12) %82)
  store i64 %83, ptr %23, align 4
  %84 = getelementptr inbounds nuw %"struct.open_spiel::battleship::Cell", ptr %23, i32 0, i32 1
  %85 = load i32, ptr %84, align 4
  store i32 %85, ptr %22, align 4
  %86 = getelementptr inbounds nuw %"class.open_spiel::battleship::BattleshipGame", ptr %29, i32 0, i32 1
  %87 = getelementptr inbounds nuw %"struct.open_spiel::battleship::BattleshipConfiguration", ptr %86, i32 0, i32 0
  %88 = load i32, ptr %87, align 8
  store i32 %88, ptr %24, align 4
  %89 = load i32, ptr %22, align 4
  %90 = load i32, ptr %24, align 4
  %91 = icmp slt i32 %89, %90
  br i1 %91, label %98, label %92

92:                                               ; preds = %81
  store i32 1033, ptr %26, align 4
  call void @_ZN10open_spiel8internal11SpielStrCatIJRA140_KcRA2_S2_iS6_RA52_S2_RA34_S2_RA4_S2_RiRA22_S2_SD_EEENSt7__cxx1112basic_stringIcSt11char_traitsIcESaIcEEEDpOT_(ptr dead_on_unwind writable sret(%"class.std::__cxx11::basic_string") align 8 %25, ptr noundef nonnull align 1 dereferenceable(140) @.str, ptr noundef nonnull align 1 dereferenceable(2) @.str.1, ptr noundef nonnull align 4 dereferenceable(4) %26, ptr noundef nonnull align 1 dereferenceable(2) @.str.2, ptr noundef nonnull align 1 dereferenceable(52) @.str.118, ptr noundef nonnull align 1 dereferenceable(34) @.str.116, ptr noundef nonnull align 1 dereferenceable(4) @.str.5, ptr noundef nonnull align 4 dereferenceable(4) %22, ptr noundef nonnull align 1 dereferenceable(22) @.str.53, ptr noundef nonnull align 4 dereferenceable(4) %24)
  invoke void @_ZN10open_spiel15SpielFatalErrorERKNSt7__cxx1112basic_stringIcSt11char_traitsIcESaIcEEE(ptr noundef nonnull align 8 dereferenceable(32) %25) #19
          to label %93 unwind label %94

93:                                               ; preds = %92
  unreachable

94:                                               ; preds = %92
  %95 = landingpad { ptr, i32 }
          cleanup
  %96 = extractvalue { ptr, i32 } %95, 0
  store ptr %96, ptr %10, align 8
  %97 = extractvalue { ptr, i32 } %95, 1
  store i32 %97, ptr %11, align 4
  call void @_ZNSt7__cxx1112basic_stringIcSt11char_traitsIcESaIcEED1Ev(ptr noundef nonnull align 8 dereferenceable(32) %25) #3
  br label %129

98:                                               ; preds = %81
  br label %99

99:                                               ; preds = %98
  store i64 0, ptr %27, align 8
  %100 = load ptr, ptr %4, align 8
  %101 = getelementptr inbounds nuw %"class.open_spiel::battleship::CellAndDirection", ptr %100, i32 0, i32 0
  %102 = load i32, ptr %101, align 4
  %103 = icmp eq i32 %102, 0
  br i1 %103, label %104, label %113

104:                                              ; preds = %99
  %105 = getelementptr inbounds nuw %"class.open_spiel::battleship::BattleshipGame", ptr %29, i32 0, i32 1
  %106 = getelementptr inbounds nuw %"struct.open_spiel::battleship::BattleshipConfiguration", ptr %105, i32 0, i32 0
  %107 = load i32, ptr %106, align 8
  %108 = getelementptr inbounds nuw %"class.open_spiel::battleship::BattleshipGame", ptr %29, i32 0, i32 1
  %109 = getelementptr inbounds nuw %"struct.open_spiel::battleship::BattleshipConfiguration", ptr %108, i32 0, i32 1
  %110 = load i32, ptr %109, align 4
  %111 = mul nsw i32 %107, %110
  %112 = sext i32 %111 to i64
  store i64 %112, ptr %27, align 8
  br label %123

113:                                              ; preds = %99
  %114 = getelementptr inbounds nuw %"class.open_spiel::battleship::BattleshipGame", ptr %29, i32 0, i32 1
  %115 = getelementptr inbounds nuw %"struct.open_spiel::battleship::BattleshipConfiguration", ptr %114, i32 0, i32 0
  %116 = load i32, ptr %115, align 8
  %117 = mul nsw i32 2, %116
  %118 = getelementptr inbounds nuw %"class.open_spiel::battleship::BattleshipGame", ptr %29, i32 0, i32 1
  %119 = getelementptr inbounds nuw %"struct.open_spiel::battleship::BattleshipConfiguration", ptr %118, i32 0, i32 1
  %120 = load i32, ptr %119, align 4
  %121 = mul nsw i32 %117, %120
  %122 = sext i32 %121 to i64
  store i64 %122, ptr %27, align 8
  br label %123

123:                                              ; preds = %113, %104
  %124 = load i64, ptr %27, align 8
  %125 = load ptr, ptr %4, align 8
  %126 = call i64 @_ZNK10open_spiel10battleship16CellAndDirection13TopLeftCornerEv(ptr noundef nonnull align 4 dereferenceable(12) %125)
  store i64 %126, ptr %28, align 4
  %127 = call noundef i64 @_ZNK10open_spiel10battleship14BattleshipGame19SerializeShotActionERKNS0_4CellE(ptr noundef nonnull align 8 dereferenceable(328) %29, ptr noundef nonnull align 4 dereferenceable(8) %28)
  %128 = add nsw i64 %124, %127
  ret i64 %128

129:                                              ; preds = %94, %75, %56, %40
  %130 = load ptr, ptr %10, align 8
  %131 = load i32, ptr %11, align 4
  %132 = insertvalue { ptr, i32 } poison, ptr %130, 0
  %133 = insertvalue { ptr, i32 } %132, i32 %131, 1
  resume { ptr, i32 } %133
}