; Function Attrs: mustprogress uwtable
define noundef range(i64 -2147483648, 4294967295) i64 @_ZNK10open_spiel10battleship14BattleshipGame28SerializeShipPlacementActionERKNS0_16CellAndDirectionE(ptr noundef nonnull readonly align 8 captures(none) dereferenceable(328) %0, ptr noundef nonnull readonly align 4 captures(none) dereferenceable(12) %1) local_unnamed_addr #3 align 2 personality ptr @__gxx_personality_v0 {
  %3 = alloca i32, align 4
  %4 = alloca i32, align 4
  %5 = alloca %"class.std::__cxx11::basic_string", align 8
  %6 = alloca i32, align 4
  %7 = alloca i32, align 4
  %8 = alloca i32, align 4
  %9 = alloca %"class.std::__cxx11::basic_string", align 8
  %10 = alloca i32, align 4
  %11 = alloca i32, align 4
  %12 = alloca i32, align 4
  %13 = alloca %"class.std::__cxx11::basic_string", align 8
  %14 = alloca i32, align 4
  %15 = alloca i32, align 4
  %16 = alloca i32, align 4
  %17 = alloca %"class.std::__cxx11::basic_string", align 8
  %18 = alloca i32, align 4
  %19 = alloca %"struct.open_spiel::battleship::Cell", align 8
  %20 = getelementptr inbounds nuw i8, ptr %1, i64 4
  %.sroa.0.0.copyload.i = load i64, ptr %20, align 4
  %.sroa.05.0.extract.trunc = trunc i64 %.sroa.0.0.copyload.i to i32
  store i32 %.sroa.05.0.extract.trunc, ptr %3, align 4
  store i32 0, ptr %4, align 4
  %21 = icmp sgt i32 %.sroa.05.0.extract.trunc, -1
  br i1 %21, label %26, label %22

22:                                               ; preds = %2
  store i32 1030, ptr %6, align 4
  call void @_ZN10open_spiel8internal11SpielStrCatIJRA140_KcRA2_S2_iS6_RA38_S2_RA34_S2_RA4_S2_RiRA7_S2_SD_EEENSt7__cxx1112basic_stringIcSt11char_traitsIcESaIcEEEDpOT_(ptr dead_on_unwind nonnull writable sret(%"class.std::__cxx11::basic_string") align 8 %5, ptr noundef nonnull align 1 dereferenceable(140) @.str, ptr noundef nonnull align 1 dereferenceable(2) @.str.1, ptr noundef nonnull align 4 dereferenceable(4) %6, ptr noundef nonnull align 1 dereferenceable(2) @.str.2, ptr noundef nonnull align 1 dereferenceable(38) @.str.113, ptr noundef nonnull align 1 dereferenceable(34) @.str.114, ptr noundef nonnull align 1 dereferenceable(4) @.str.5, ptr noundef nonnull align 4 dereferenceable(4) %3, ptr noundef nonnull align 1 dereferenceable(7) @.str.6, ptr noundef nonnull align 4 dereferenceable(4) %4)
  invoke void @_ZN10open_spiel15SpielFatalErrorERKNSt7__cxx1112basic_stringIcSt11char_traitsIcESaIcEEE(ptr noundef nonnull align 8 dereferenceable(32) %5) #28
          to label %23 unwind label %24

23:                                               ; preds = %22
  unreachable

24:                                               ; preds = %22
  %25 = landingpad { ptr, i32 }
          cleanup
  br label %54

26:                                               ; preds = %2
  %.sroa.13.0.extract.shift = lshr i64 %.sroa.0.0.copyload.i, 32
  %.sroa.13.0.extract.trunc = trunc nuw i64 %.sroa.13.0.extract.shift to i32
  store i32 %.sroa.13.0.extract.trunc, ptr %7, align 4
  store i32 0, ptr %8, align 4
  %27 = icmp sgt i64 %.sroa.0.0.copyload.i, -1
  br i1 %27, label %32, label %28

28:                                               ; preds = %26
  store i32 1031, ptr %10, align 4
  call void @_ZN10open_spiel8internal11SpielStrCatIJRA140_KcRA2_S2_iS6_RA38_S2_RA34_S2_RA4_S2_RiRA7_S2_SD_EEENSt7__cxx1112basic_stringIcSt11char_traitsIcESaIcEEEDpOT_(ptr dead_on_unwind nonnull writable sret(%"class.std::__cxx11::basic_string") align 8 %9, ptr noundef nonnull align 1 dereferenceable(140) @.str, ptr noundef nonnull align 1 dereferenceable(2) @.str.1, ptr noundef nonnull align 4 dereferenceable(4) %10, ptr noundef nonnull align 1 dereferenceable(2) @.str.2, ptr noundef nonnull align 1 dereferenceable(38) @.str.115, ptr noundef nonnull align 1 dereferenceable(34) @.str.116, ptr noundef nonnull align 1 dereferenceable(4) @.str.5, ptr noundef nonnull align 4 dereferenceable(4) %7, ptr noundef nonnull align 1 dereferenceable(7) @.str.6, ptr noundef nonnull align 4 dereferenceable(4) %8)
  invoke void @_ZN10open_spiel15SpielFatalErrorERKNSt7__cxx1112basic_stringIcSt11char_traitsIcESaIcEEE(ptr noundef nonnull align 8 dereferenceable(32) %9) #28
          to label %29 unwind label %30

29:                                               ; preds = %28
  unreachable

30:                                               ; preds = %28
  %31 = landingpad { ptr, i32 }
          cleanup
  br label %54

32:                                               ; preds = %26
  store i32 %.sroa.05.0.extract.trunc, ptr %11, align 4
  %33 = getelementptr inbounds nuw i8, ptr %0, i64 284
  %34 = load i32, ptr %33, align 4
  store i32 %34, ptr %12, align 4
  %35 = icmp sgt i32 %34, %.sroa.05.0.extract.trunc
  br i1 %35, label %40, label %36

36:                                               ; preds = %32
  store i32 1032, ptr %14, align 4
  call void @_ZN10open_spiel8internal11SpielStrCatIJRA140_KcRA2_S2_iS6_RA53_S2_RA34_S2_RA4_S2_RiRA23_S2_SD_EEENSt7__cxx1112basic_stringIcSt11char_traitsIcESaIcEEEDpOT_(ptr dead_on_unwind nonnull writable sret(%"class.std::__cxx11::basic_string") align 8 %13, ptr noundef nonnull align 1 dereferenceable(140) @.str, ptr noundef nonnull align 1 dereferenceable(2) @.str.1, ptr noundef nonnull align 4 dereferenceable(4) %14, ptr noundef nonnull align 1 dereferenceable(2) @.str.2, ptr noundef nonnull align 1 dereferenceable(53) @.str.117, ptr noundef nonnull align 1 dereferenceable(34) @.str.114, ptr noundef nonnull align 1 dereferenceable(4) @.str.5, ptr noundef nonnull align 4 dereferenceable(4) %11, ptr noundef nonnull align 1 dereferenceable(23) @.str.49, ptr noundef nonnull align 4 dereferenceable(4) %12)
  invoke void @_ZN10open_spiel15SpielFatalErrorERKNSt7__cxx1112basic_stringIcSt11char_traitsIcESaIcEEE(ptr noundef nonnull align 8 dereferenceable(32) %13) #28
          to label %37 unwind label %38

37:                                               ; preds = %36
  unreachable

38:                                               ; preds = %36
  %39 = landingpad { ptr, i32 }
          cleanup
  br label %54

40:                                               ; preds = %32
  %41 = getelementptr inbounds nuw i8, ptr %0, i64 280
  store i32 %.sroa.13.0.extract.trunc, ptr %15, align 4
  %42 = load i32, ptr %41, align 8
  store i32 %42, ptr %16, align 4
  %43 = icmp sgt i32 %42, %.sroa.13.0.extract.trunc
  br i1 %43, label %48, label %44

44:                                               ; preds = %40
  store i32 1033, ptr %18, align 4
  call void @_ZN10open_spiel8internal11SpielStrCatIJRA140_KcRA2_S2_iS6_RA52_S2_RA34_S2_RA4_S2_RiRA22_S2_SD_EEENSt7__cxx1112basic_stringIcSt11char_traitsIcESaIcEEEDpOT_(ptr dead_on_unwind nonnull writable sret(%"class.std::__cxx11::basic_string") align 8 %17, ptr noundef nonnull align 1 dereferenceable(140) @.str, ptr noundef nonnull align 1 dereferenceable(2) @.str.1, ptr noundef nonnull align 4 dereferenceable(4) %18, ptr noundef nonnull align 1 dereferenceable(2) @.str.2, ptr noundef nonnull align 1 dereferenceable(52) @.str.118, ptr noundef nonnull align 1 dereferenceable(34) @.str.116, ptr noundef nonnull align 1 dereferenceable(4) @.str.5, ptr noundef nonnull align 4 dereferenceable(4) %15, ptr noundef nonnull align 1 dereferenceable(22) @.str.53, ptr noundef nonnull align 4 dereferenceable(4) %16)
  invoke void @_ZN10open_spiel15SpielFatalErrorERKNSt7__cxx1112basic_stringIcSt11char_traitsIcESaIcEEE(ptr noundef nonnull align 8 dereferenceable(32) %17) #28
          to label %45 unwind label %46

45:                                               ; preds = %44
  unreachable

46:                                               ; preds = %44
  %47 = landingpad { ptr, i32 }
          cleanup
  br label %54

48:                                               ; preds = %40
  %49 = load i32, ptr %1, align 4
  %50 = icmp ne i32 %49, 0
  %51 = zext i1 %50 to i32
  %.0.in.v = shl nsw i32 %42, %51
  %.0.in = mul nsw i32 %.0.in.v, %34
  %.0 = sext i32 %.0.in to i64
  store i64 %.sroa.0.0.copyload.i, ptr %19, align 8
  %52 = call noundef i64 @_ZNK10open_spiel10battleship14BattleshipGame19SerializeShotActionERKNS0_4CellE(ptr noundef nonnull align 8 dereferenceable(328) %0, ptr noundef nonnull align 4 dereferenceable(8) %19)
  %53 = add nsw i64 %52, %.0
  ret i64 %53

54:                                               ; preds = %46, %38, %30, %24
  %.sink = phi ptr [ %17, %46 ], [ %13, %38 ], [ %9, %30 ], [ %5, %24 ]
  %.pn = phi { ptr, i32 } [ %47, %46 ], [ %39, %38 ], [ %31, %30 ], [ %25, %24 ]
  call void @_ZNSt7__cxx1112basic_stringIcSt11char_traitsIcESaIcEED1Ev(ptr noundef nonnull align 8 dereferenceable(32) %.sink) #27
  resume { ptr, i32 } %.pn
}